target datalayout = "e-m:e-p270:32:32-p271:32:32-p272:64:64-i64:64-i128:128-f80:128-n8:16:32:64-S128"
target triple = "x86_64-pc-linux-gnu"

%struct._cmsMemPluginChunkType = type { ptr, ptr, ptr, ptr, ptr, ptr }

; Function Attrs: nounwind uwtable
define hidden ptr @_cmsMalloc(ptr noundef %0, i32 noundef %1) #0 {
  %3 = alloca ptr, align 8
  %4 = alloca i32, align 4
  %5 = alloca ptr, align 8
  store ptr %0, ptr %3, align 8
  store i32 %1, ptr %4, align 4
  %6 = load ptr, ptr %3, align 8
  %7 = call ptr @_cmsContextGetClientChunk(ptr noundef %6, i32 noundef 4)
  store ptr %7, ptr %5, align 8
  %8 = load ptr, ptr %5, align 8
  %9 = getelementptr inbounds %struct._cmsMemPluginChunkType, ptr %8, i32 0, i32 0
  %10 = load ptr, ptr %9, align 8
  %11 = load ptr, ptr %3, align 8
  %12 = load i32, ptr %4, align 4
  %13 = call ptr %10(ptr noundef %11, i32 noundef %12)
  ret ptr %13
}

; Function Attrs: nounwind uwtable
define internal ptr @_cmsMallocZeroDefaultFn(ptr noundef %0, i32 noundef %1) #0 {
  %3 = alloca ptr, align 8
  %4 = alloca ptr, align 8
  %5 = alloca i32, align 4
  %6 = alloca ptr, align 8
  store ptr %0, ptr %4, align 8
  store i32 %1, ptr %5, align 4
  %7 = load ptr, ptr %4, align 8
  %8 = load i32, ptr %5, align 4
  %9 = call ptr @_cmsMalloc(ptr noundef %7, i32 noundef %8)
  store ptr %9, ptr %6, align 8
  %10 = load ptr, ptr %6, align 8
  %11 = icmp eq ptr %10, null
  br i1 %11, label %12, label %13

12:                                               ; preds = %2
  store ptr null, ptr %3, align 8
  br label %18

13:                                               ; preds = %2
  %14 = load ptr, ptr %6, align 8
  %15 = load i32, ptr %5, align 4
  %16 = zext i32 %15 to i64
  call void @llvm.memset.p0.i64(ptr align 1 %14, i8 0, i64 %16, i1 false)
  %17 = load ptr, ptr %6, align 8
  store ptr %17, ptr %3, align 8
  br label %18

18:                                               ; preds = %13, %12
  %19 = load ptr, ptr %3, align 8
  ret ptr %19
}