; Function Attrs: nounwind uwtable
define internal ptr @_cmsMallocZeroDefaultFn(ptr noundef %0, i32 noundef %1) #6 {
  %3 = tail call ptr @_cmsContextGetClientChunk(ptr noundef %0, i32 noundef 4) #20
  %4 = load ptr, ptr %3, align 8
  %5 = tail call ptr %4(ptr noundef %0, i32 noundef %1) #20
  %6 = icmp eq ptr %5, null
  br i1 %6, label %9, label %7

7:                                                ; preds = %2
  %8 = zext i32 %1 to i64
  tail call void @llvm.memset.p0.i64(ptr nonnull align 1 %5, i8 0, i64 %8, i1 false)
  br label %9

9:                                                ; preds = %2, %7
  ret ptr %5
}